target datalayout = "e-m:e-p270:32:32-p271:32:32-p272:64:64-i64:64-i128:128-f80:128-n8:16:32:64-S128"
target triple = "x86_64-pc-linux-gnu"

%struct.hb_object_header_t = type { %struct.hb_reference_count_t, %struct.hb_atomic_int_t, %struct.hb_atomic_ptr_t }
%struct.hb_reference_count_t = type { %struct.hb_atomic_int_t }
%struct.hb_atomic_ptr_t = type { ptr }
%struct.hb_atomic_int_t = type { i32 }
%struct.hb_atomic_ptr_t.7 = type { ptr }
%struct.hb_atomic_ptr_t.8 = type { ptr }
%struct.hb_atomic_ptr_t.16 = type { ptr }
%struct.hb_atomic_ptr_t.22 = type { ptr }
%struct.hb_atomic_ptr_t.29 = type { ptr }
%struct.hb_atomic_ptr_t.33 = type { ptr }
%struct.hb_atomic_ptr_t.40 = type { ptr }
%struct.hb_atomic_ptr_t.47 = type { ptr }
%struct.hb_atomic_ptr_t.57 = type { ptr }
%struct.hb_atomic_ptr_t.61 = type { ptr }
%struct.hb_atomic_ptr_t.65 = type { ptr }
%struct.hb_atomic_ptr_t.78 = type { ptr }
%struct.hb_atomic_ptr_t.88 = type { ptr }
%struct.hb_atomic_ptr_t.92 = type { ptr }
%struct.hb_atomic_ptr_t.96 = type { ptr }
%struct.hb_atomic_ptr_t.130 = type { ptr }
%struct.hb_atomic_ptr_t.134 = type { ptr }
%struct.hb_atomic_ptr_t.138 = type { ptr }
%struct.hb_atomic_ptr_t.12 = type { ptr }
%struct.hb_atomic_ptr_t.145 = type { ptr }
%struct.hb_face_t = type { %struct.hb_object_header_t, ptr, ptr, ptr, i32, %struct.hb_atomic_int_t, %struct.hb_atomic_int_t, %struct.hb_shaper_object_dataset_t, %struct.hb_ot_face_t, %struct.hb_atomic_ptr_t.145 }
%struct.hb_shaper_object_dataset_t = type { ptr, %struct.hb_shaper_lazy_loader_t, %struct.hb_shaper_lazy_loader_t.9 }
%struct.hb_shaper_lazy_loader_t = type { %struct.hb_lazy_loader_t }
%struct.hb_lazy_loader_t = type { %struct.hb_atomic_ptr_t.7 }
%struct.hb_shaper_lazy_loader_t.9 = type { %struct.hb_lazy_loader_t.10 }
%struct.hb_lazy_loader_t.10 = type { %struct.hb_atomic_ptr_t.8 }
%struct.hb_ot_face_t = type { ptr, %struct.hb_table_lazy_loader_t, %struct.hb_table_lazy_loader_t.14, %struct.hb_face_lazy_loader_t, %struct.hb_table_lazy_loader_t.19, %struct.hb_face_lazy_loader_t.23, %struct.hb_table_lazy_loader_t.26, %struct.hb_face_lazy_loader_t.30, %struct.hb_face_lazy_loader_t.34, %struct.hb_table_lazy_loader_t.37, %struct.hb_face_lazy_loader_t.41, %struct.hb_table_lazy_loader_t.44, %struct.hb_face_lazy_loader_t.48, %struct.hb_table_lazy_loader_t.51, %struct.hb_table_lazy_loader_t.54, %struct.hb_face_lazy_loader_t.58, %struct.hb_face_lazy_loader_t.62, %struct.hb_face_lazy_loader_t.66, %struct.hb_table_lazy_loader_t.69, %struct.hb_table_lazy_loader_t.72, %struct.hb_table_lazy_loader_t.75, %struct.hb_face_lazy_loader_t.79, %struct.hb_table_lazy_loader_t.82, %struct.hb_table_lazy_loader_t.85, %struct.hb_face_lazy_loader_t.89, %struct.hb_face_lazy_loader_t.93, %struct.hb_face_lazy_loader_t.97, %struct.hb_table_lazy_loader_t.100, %struct.hb_table_lazy_loader_t.103, %struct.hb_table_lazy_loader_t.106, %struct.hb_table_lazy_loader_t.109, %struct.hb_table_lazy_loader_t.112, %struct.hb_table_lazy_loader_t.115, %struct.hb_table_lazy_loader_t.118, %struct.hb_table_lazy_loader_t.121, %struct.hb_table_lazy_loader_t.124, %struct.hb_table_lazy_loader_t.127, %struct.hb_face_lazy_loader_t.131, %struct.hb_face_lazy_loader_t.135, %struct.hb_face_lazy_loader_t.139, %struct.hb_table_lazy_loader_t.142 }
%struct.hb_table_lazy_loader_t = type { %struct.hb_lazy_loader_t.13 }
%struct.hb_lazy_loader_t.13 = type { %struct.hb_atomic_ptr_t.12 }
%struct.hb_table_lazy_loader_t.14 = type { %struct.hb_lazy_loader_t.15 }
%struct.hb_lazy_loader_t.15 = type { %struct.hb_atomic_ptr_t.12 }
%struct.hb_face_lazy_loader_t = type { %struct.hb_lazy_loader_t.17 }
%struct.hb_lazy_loader_t.17 = type { %struct.hb_atomic_ptr_t.16 }
%struct.hb_table_lazy_loader_t.19 = type { %struct.hb_lazy_loader_t.20 }
%struct.hb_lazy_loader_t.20 = type { %struct.hb_atomic_ptr_t.12 }
%struct.hb_face_lazy_loader_t.23 = type { %struct.hb_lazy_loader_t.24 }
%struct.hb_lazy_loader_t.24 = type { %struct.hb_atomic_ptr_t.22 }
%struct.hb_table_lazy_loader_t.26 = type { %struct.hb_lazy_loader_t.27 }
%struct.hb_lazy_loader_t.27 = type { %struct.hb_atomic_ptr_t.12 }
%struct.hb_face_lazy_loader_t.30 = type { %struct.hb_lazy_loader_t.31 }
%struct.hb_lazy_loader_t.31 = type { %struct.hb_atomic_ptr_t.29 }
%struct.hb_face_lazy_loader_t.34 = type { %struct.hb_lazy_loader_t.35 }
%struct.hb_lazy_loader_t.35 = type { %struct.hb_atomic_ptr_t.33 }
%struct.hb_table_lazy_loader_t.37 = type { %struct.hb_lazy_loader_t.38 }
%struct.hb_lazy_loader_t.38 = type { %struct.hb_atomic_ptr_t.12 }
%struct.hb_face_lazy_loader_t.41 = type { %struct.hb_lazy_loader_t.42 }
%struct.hb_lazy_loader_t.42 = type { %struct.hb_atomic_ptr_t.40 }
%struct.hb_table_lazy_loader_t.44 = type { %struct.hb_lazy_loader_t.45 }
%struct.hb_lazy_loader_t.45 = type { %struct.hb_atomic_ptr_t.12 }
%struct.hb_face_lazy_loader_t.48 = type { %struct.hb_lazy_loader_t.49 }
%struct.hb_lazy_loader_t.49 = type { %struct.hb_atomic_ptr_t.47 }
%struct.hb_table_lazy_loader_t.51 = type { %struct.hb_lazy_loader_t.52 }
%struct.hb_lazy_loader_t.52 = type { %struct.hb_atomic_ptr_t.12 }
%struct.hb_table_lazy_loader_t.54 = type { %struct.hb_lazy_loader_t.55 }
%struct.hb_lazy_loader_t.55 = type { %struct.hb_atomic_ptr_t.12 }
%struct.hb_face_lazy_loader_t.58 = type { %struct.hb_lazy_loader_t.59 }
%struct.hb_lazy_loader_t.59 = type { %struct.hb_atomic_ptr_t.57 }
%struct.hb_face_lazy_loader_t.62 = type { %struct.hb_lazy_loader_t.63 }
%struct.hb_lazy_loader_t.63 = type { %struct.hb_atomic_ptr_t.61 }
%struct.hb_face_lazy_loader_t.66 = type { %struct.hb_lazy_loader_t.67 }
%struct.hb_lazy_loader_t.67 = type { %struct.hb_atomic_ptr_t.65 }
%struct.hb_table_lazy_loader_t.69 = type { %struct.hb_lazy_loader_t.70 }
%struct.hb_lazy_loader_t.70 = type { %struct.hb_atomic_ptr_t.12 }
%struct.hb_table_lazy_loader_t.72 = type { %struct.hb_lazy_loader_t.73 }
%struct.hb_lazy_loader_t.73 = type { %struct.hb_atomic_ptr_t.12 }
%struct.hb_table_lazy_loader_t.75 = type { %struct.hb_lazy_loader_t.76 }
%struct.hb_lazy_loader_t.76 = type { %struct.hb_atomic_ptr_t.12 }
%struct.hb_face_lazy_loader_t.79 = type { %struct.hb_lazy_loader_t.80 }
%struct.hb_lazy_loader_t.80 = type { %struct.hb_atomic_ptr_t.78 }
%struct.hb_table_lazy_loader_t.82 = type { %struct.hb_lazy_loader_t.83 }
%struct.hb_lazy_loader_t.83 = type { %struct.hb_atomic_ptr_t.12 }
%struct.hb_table_lazy_loader_t.85 = type { %struct.hb_lazy_loader_t.86 }
%struct.hb_lazy_loader_t.86 = type { %struct.hb_atomic_ptr_t.12 }
%struct.hb_face_lazy_loader_t.89 = type { %struct.hb_lazy_loader_t.90 }
%struct.hb_lazy_loader_t.90 = type { %struct.hb_atomic_ptr_t.88 }
%struct.hb_face_lazy_loader_t.93 = type { %struct.hb_lazy_loader_t.94 }
%struct.hb_lazy_loader_t.94 = type { %struct.hb_atomic_ptr_t.92 }
%struct.hb_face_lazy_loader_t.97 = type { %struct.hb_lazy_loader_t.98 }
%struct.hb_lazy_loader_t.98 = type { %struct.hb_atomic_ptr_t.96 }
%struct.hb_table_lazy_loader_t.100 = type { %struct.hb_lazy_loader_t.101 }
%struct.hb_lazy_loader_t.101 = type { %struct.hb_atomic_ptr_t.12 }
%struct.hb_table_lazy_loader_t.103 = type { %struct.hb_lazy_loader_t.104 }
%struct.hb_lazy_loader_t.104 = type { %struct.hb_atomic_ptr_t.12 }
%struct.hb_table_lazy_loader_t.106 = type { %struct.hb_lazy_loader_t.107 }
%struct.hb_lazy_loader_t.107 = type { %struct.hb_atomic_ptr_t.12 }
%struct.hb_table_lazy_loader_t.109 = type { %struct.hb_lazy_loader_t.110 }
%struct.hb_lazy_loader_t.110 = type { %struct.hb_atomic_ptr_t.12 }
%struct.hb_table_lazy_loader_t.112 = type { %struct.hb_lazy_loader_t.113 }
%struct.hb_lazy_loader_t.113 = type { %struct.hb_atomic_ptr_t.12 }
%struct.hb_table_lazy_loader_t.115 = type { %struct.hb_lazy_loader_t.116 }
%struct.hb_lazy_loader_t.116 = type { %struct.hb_atomic_ptr_t.12 }
%struct.hb_table_lazy_loader_t.118 = type { %struct.hb_lazy_loader_t.119 }
%struct.hb_lazy_loader_t.119 = type { %struct.hb_atomic_ptr_t.12 }
%struct.hb_table_lazy_loader_t.121 = type { %struct.hb_lazy_loader_t.122 }
%struct.hb_lazy_loader_t.122 = type { %struct.hb_atomic_ptr_t.12 }
%struct.hb_table_lazy_loader_t.124 = type { %struct.hb_lazy_loader_t.125 }
%struct.hb_lazy_loader_t.125 = type { %struct.hb_atomic_ptr_t.12 }
%struct.hb_table_lazy_loader_t.127 = type { %struct.hb_lazy_loader_t.128 }
%struct.hb_lazy_loader_t.128 = type { %struct.hb_atomic_ptr_t.12 }
%struct.hb_face_lazy_loader_t.131 = type { %struct.hb_lazy_loader_t.132 }
%struct.hb_lazy_loader_t.132 = type { %struct.hb_atomic_ptr_t.130 }
%struct.hb_face_lazy_loader_t.135 = type { %struct.hb_lazy_loader_t.136 }
%struct.hb_lazy_loader_t.136 = type { %struct.hb_atomic_ptr_t.134 }
%struct.hb_face_lazy_loader_t.139 = type { %struct.hb_lazy_loader_t.140 }
%struct.hb_lazy_loader_t.140 = type { %struct.hb_atomic_ptr_t.138 }
%struct.hb_table_lazy_loader_t.142 = type { %struct.hb_lazy_loader_t.143 }
%struct.hb_lazy_loader_t.143 = type { %struct.hb_atomic_ptr_t.12 }

; Function Attrs: mustprogress nounwind uwtable
define linkonce_odr hidden noundef i32 @_ZNK15hb_atomic_int_t11get_relaxedEv(ptr noundef nonnull align 4 dereferenceable(4) %0) #1 comdat align 2 {
  %2 = alloca ptr, align 8
  %3 = alloca i32, align 4
  store ptr %0, ptr %2, align 8
  %4 = load ptr, ptr %2, align 8
  %5 = getelementptr inbounds %struct.hb_atomic_int_t, ptr %4, i32 0, i32 0
  %6 = load atomic i32, ptr %5 monotonic, align 4
  store i32 %6, ptr %3, align 4
  %7 = load i32, ptr %3, align 4
  ret i32 %7
}

; Function Attrs: mustprogress uwtable
define linkonce_odr hidden noundef i32 @_ZNK15hb_atomic_int_tcviEv(ptr noundef nonnull align 4 dereferenceable(4) %0) #0 comdat align 2 {
  %2 = alloca ptr, align 8
  store ptr %0, ptr %2, align 8
  %3 = load ptr, ptr %2, align 8
  %4 = call noundef i32 @_ZNK15hb_atomic_int_t11get_relaxedEv(ptr noundef nonnull align 4 dereferenceable(4) %3)
  ret i32 %4
}

; Function Attrs: mustprogress uwtable
define internal noundef zeroext i1 @_ZL22hb_object_is_immutableI9hb_face_tEbPKT_(ptr noundef %0) #0 {
  %2 = alloca ptr, align 8
  store ptr %0, ptr %2, align 8
  %3 = load ptr, ptr %2, align 8
  %4 = getelementptr inbounds %struct.hb_face_t, ptr %3, i32 0, i32 0
  %5 = getelementptr inbounds %struct.hb_object_header_t, ptr %4, i32 0, i32 1
  %6 = call noundef i32 @_ZNK15hb_atomic_int_tcviEv(ptr noundef nonnull align 4 dereferenceable(4) %5)
  %7 = icmp ne i32 %6, 0
  %8 = xor i1 %7, true
  ret i1 %8
}

; Function Attrs: mustprogress uwtable
define hidden void @hb_face_set_index(ptr noundef %0, i32 noundef %1) #0 {
  %3 = alloca ptr, align 8
  %4 = alloca i32, align 4
  store ptr %0, ptr %3, align 8
  store i32 %1, ptr %4, align 4
  %5 = load ptr, ptr %3, align 8
  %6 = call noundef zeroext i1 @_ZL22hb_object_is_immutableI9hb_face_tEbPKT_(ptr noundef %5)
  br i1 %6, label %7, label %8

7:                                                ; preds = %2
  br label %12

8:                                                ; preds = %2
  %9 = load i32, ptr %4, align 4
  %10 = load ptr, ptr %3, align 8
  %11 = getelementptr inbounds %struct.hb_face_t, ptr %10, i32 0, i32 4
  store i32 %9, ptr %11, align 8
  br label %12

12:                                               ; preds = %8, %7
  ret void
}